; Function Attrs: nounwind uwtable
define ptr @dtgtk_expander_get_frame(ptr noundef readonly %0) local_unnamed_addr #0 {
  %2 = load atomic i64, ptr @dtgtk_expander_get_type.static_g_define_type_id seq_cst, align 8
  %.not.i.i = icmp eq i64 %2, 0
  br i1 %.not.i.i, label %3, label %dtgtk_expander_get_type.exit.i

3:                                                ; preds = %1
  %4 = tail call i32 @g_once_init_enter(ptr noundef nonnull @dtgtk_expander_get_type.static_g_define_type_id) #10
  %.not4.i.i = icmp eq i32 %4, 0
  br i1 %.not4.i.i, label %dtgtk_expander_get_type.exit.i, label %5

5:                                                ; preds = %3
  %6 = tail call fastcc i64 @dtgtk_expander_get_type_once()
  tail call void @g_once_init_leave(ptr noundef nonnull @dtgtk_expander_get_type.static_g_define_type_id, i64 noundef %6) #10
  br label %dtgtk_expander_get_type.exit.i

dtgtk_expander_get_type.exit.i:                   ; preds = %5, %3, %1
  %7 = load i64, ptr @dtgtk_expander_get_type.static_g_define_type_id, align 8, !tbaa !6
  %.not.i = icmp eq ptr %0, null
  br i1 %.not.i, label %DTGTK_IS_EXPANDER.exit.thread, label %8

8:                                                ; preds = %dtgtk_expander_get_type.exit.i
  %9 = load ptr, ptr %0, align 8, !tbaa !10
  %.not10.i = icmp eq ptr %9, null
  br i1 %.not10.i, label %DTGTK_IS_EXPANDER.exit, label %10

10:                                               ; preds = %8
  %11 = load i64, ptr %9, align 8, !tbaa !14
  %12 = icmp eq i64 %11, %7
  br i1 %12, label %DTGTK_IS_EXPANDER.exit.thread8, label %DTGTK_IS_EXPANDER.exit

DTGTK_IS_EXPANDER.exit:                           ; preds = %8, %10
  %13 = tail call i32 @g_type_check_instance_is_a(ptr noundef nonnull readonly %0, i64 noundef %7) #12
  %.not = icmp eq i32 %13, 0
  br i1 %.not, label %DTGTK_IS_EXPANDER.exit.thread, label %DTGTK_IS_EXPANDER.exit.thread8, !prof !16

DTGTK_IS_EXPANDER.exit.thread:                    ; preds = %dtgtk_expander_get_type.exit.i, %DTGTK_IS_EXPANDER.exit
  tail call void @g_return_if_fail_warning(ptr noundef null, ptr noundef nonnull @__func__.dtgtk_expander_get_frame, ptr noundef nonnull @.str) #10
  br label %19

DTGTK_IS_EXPANDER.exit.thread8:                   ; preds = %10, %DTGTK_IS_EXPANDER.exit
  %14 = getelementptr inbounds nuw i8, ptr %0, i64 56
  %15 = load ptr, ptr %14, align 8, !tbaa !17
  %16 = tail call i64 @gtk_bin_get_type() #11
  %17 = tail call ptr @g_type_check_instance_cast(ptr noundef %15, i64 noundef %16) #10
  %18 = tail call ptr @gtk_bin_get_child(ptr noundef %17) #10
  br label %19

19:                                               ; preds = %DTGTK_IS_EXPANDER.exit.thread8, %DTGTK_IS_EXPANDER.exit.thread
  %.0 = phi ptr [ %18, %DTGTK_IS_EXPANDER.exit.thread8 ], [ null, %DTGTK_IS_EXPANDER.exit.thread ]
  ret ptr %.0
}